; Function Attrs: mustprogress uwtable
define internal fastcc void @_ZN12_GLOBAL__N_19cmCatFileERKNSt7__cxx1112basic_stringIcSt11char_traitsIcESaIcEEE(ptr noundef nonnull align 8 dereferenceable(32) %0) unnamed_addr #3 personality ptr @__gxx_personality_v0 {
  %2 = alloca %"class.std::basic_ifstream", align 8
  %3 = load ptr, ptr @_ZSt3cin, align 8
  %4 = getelementptr i8, ptr %3, i64 -24
  %5 = load i64, ptr %4, align 8
  %6 = getelementptr inbounds i8, ptr @_ZSt3cin, i64 %5
  %7 = tail call noundef ptr @_ZNKSt9basic_iosIcSt11char_traitsIcEE5rdbufEv(ptr noundef nonnull align 8 dereferenceable(264) %6)
  call void @_ZNSt14basic_ifstreamIcSt11char_traitsIcEEC1Ev(ptr noundef nonnull align 8 dereferenceable(256) %2)
  %8 = call noundef i32 @_ZNKSt7__cxx1112basic_stringIcSt11char_traitsIcESaIcEE7compareEPKc(ptr noundef nonnull align 8 dereferenceable(32) %0, ptr noundef nonnull @.str.57) #21
  %.not = icmp eq i32 %8, 0
  br i1 %.not, label %15, label %9

9:                                                ; preds = %1
  %10 = call noundef ptr @_ZNKSt7__cxx1112basic_stringIcSt11char_traitsIcESaIcEE5c_strEv(ptr noundef nonnull align 8 dereferenceable(32) %0) #21
  invoke void @_ZNSt14basic_ifstreamIcSt11char_traitsIcEE4openEPKcSt13_Ios_Openmode(ptr noundef nonnull align 8 dereferenceable(256) %2, ptr noundef %10, i32 noundef 12)
          to label %11 unwind label %13

11:                                               ; preds = %9
  %12 = invoke noundef ptr @_ZNKSt14basic_ifstreamIcSt11char_traitsIcEE5rdbufEv(ptr noundef nonnull align 8 dereferenceable(256) %2)
          to label %15 unwind label %13

13:                                               ; preds = %15, %11, %9
  %14 = landingpad { ptr, i32 }
          cleanup
  call void @_ZNSt14basic_ifstreamIcSt11char_traitsIcEED1Ev(ptr noundef nonnull align 8 dereferenceable(256) %2) #21
  resume { ptr, i32 } %14

15:                                               ; preds = %11, %1
  %.0 = phi ptr [ %7, %1 ], [ %12, %11 ]
  %16 = invoke noundef nonnull align 8 dereferenceable(8) ptr @_ZNSolsEPSt15basic_streambufIcSt11char_traitsIcEE(ptr noundef nonnull align 8 dereferenceable(8) @_ZSt4cout, ptr noundef %.0)
          to label %17 unwind label %13

17:                                               ; preds = %15
  call void @_ZNSt14basic_ifstreamIcSt11char_traitsIcEED1Ev(ptr noundef nonnull align 8 dereferenceable(256) %2) #21
  ret void
}